(dp1
S'counter'
p2
I2
sS'sentences'
p3
(lp4
(lp5
S'This is a test document 4. You really need to modify generateData function in app.py to get your data points up here'
p6
aS'id4'
p7
aa(lp8
S'This is a test document 1. You really need to modify generateData function in app.py to get your data points up here'
p9
aS'id1'
p10
aa(lp11
S'This is a test document 6. You really need to modify generateData function in app.py to get your data points up here'
p12
aS'id6'
p13
aa(lp14
S'This is a test document 3. You really need to modify generateData function in app.py to get your data points up here'
p15
aS'id3'
p16
aa(lp17
S'This is a test document 2. You really need to modify generateData function in app.py to get your data points up here'
p18
aS'id2'
p19
aa(lp20
S'This is a test document 5. You really need to modify generateData function in app.py to get your data points up here'
p21
aS'id5'
p22
aas.